(dp1
S'output'
p2
S"<type 'exceptions.KeyError'> 'Global_Sales'"
p3
sS'layer'
p4
S'C:\\projects\\web2py\\applications\\bootcamp_round3\\controllers/default.py'
p5
sS'code'
p6
S'def index():\n    return dict()\n\n\ndef get_data():\n    import pandas as pd\n    import os\n    import ujson\n    df = pd.read_csv(os.path.join(request.folder, \'private\', \'data/dataset_1/Video_Games_Sales_as_at_22_Dec_2016.csv\'))\n    print df\n    genres = df.transpose().groupby(\'Global_Sales\')[[\'Action\',\'Adventure\',\'Fighting\',\'Misc\',\'Platform\',\'Puzzle\',\'Racing\',\'Role-Playing\',\'Shooter\',\'Simulation\',\'Sports\',\'Strategy\']].sum()\n    regions = df.groupby(\'Genre\')[[\'NA_Sales\',\'EU_Sales\',\'JP_Sales\',\'Other_Sales\',\'Global_Sales\']].sum()\n    years = df.groupby(\'Year_of_Release\')[[\'NA_Sales\',\'EU_Sales\',\'JP_Sales\',\'Other_Sales\',\'Global_Sales\']].sum()\n    names = df.groupby(\'Name\')[[\'NA_Sales\',\'EU_Sales\',\'JP_Sales\',\'Other_Sales\',\'Global_Sales\']].sum()\n    #print years  \n\n    output = {}\n    output[\'regions\'] = regions.to_dict()\n    #output[\'genres\'] = regions.transpose().to_dict()\n    output[\'genres\'] = genres.to_dict()\n    output[\'years\'] = years.to_dict()\n    output[\'names\'] = names.to_dict()\n    output[\'namelist\'] = output[\'names\'][\'Global_Sales\'].keys()\n    #ourput[\'name_list\'] = output[\'names\'][\'Global_Sales\'].keys()\n\n\n    return ujson.dumps(output)\n\n\ndef user():\n    """\n    exposes:\n    http://..../[app]/default/user/login\n    http://..../[app]/default/user/logout\n    http://..../[app]/default/user/register\n    http://..../[app]/default/user/profile\n    http://..../[app]/default/user/retrieve_password\n    http://..../[app]/default/user/change_password\n    http://..../[app]/default/user/bulk_register\n    use @auth.requires_login()\n        @auth.requires_membership(\'group name\')\n        @auth.requires_permission(\'read\',\'table name\',record_id)\n    to decorate functions that need access control\n    also notice there is http://..../[app]/appadmin/manage/auth to allow administrator to manage users\n    """\n    return dict(form=auth())\n\n\n@cache.action()\ndef download():\n    """\n    allows downloading of uploaded files\n    http://..../[app]/default/download/[filename]\n    """\n    return response.download(request, db)\n\n\ndef call():\n    """\n    exposes services. for example:\n    http://..../[app]/default/call/jsonrpc\n    decorate with @services.jsonrpc the functions to expose\n    supports xml, json, xmlrpc, jsonrpc, amfrpc, rss, csv\n    """\n    return service()\n\n\n\nresponse._vars=response._caller(get_data)\n'
p7
sS'snapshot'
p8
(dp9
sS'traceback'
p10
S'Traceback (most recent call last):\n  File "C:\\projects\\web2py\\gluon\\restricted.py", line 227, in restricted\n    exec ccode in environment\n  File "C:\\projects\\web2py\\applications\\bootcamp_round3\\controllers/default.py", line 69, in <module>\n  File "C:\\projects\\web2py\\gluon\\globals.py", line 417, in <lambda>\n    self._caller = lambda f: f()\n  File "C:\\projects\\web2py\\applications\\bootcamp_round3\\controllers/default.py", line 11, in get_data\n    genres = df.transpose().groupby(\'Global_Sales\')[[\'Action\',\'Adventure\',\'Fighting\',\'Misc\',\'Platform\',\'Puzzle\',\'Racing\',\'Role-Playing\',\'Shooter\',\'Simulation\',\'Sports\',\'Strategy\']].sum()\n  File "C:\\Program Files\\Anaconda2\\lib\\site-packages\\pandas\\core\\generic.py", line 3778, in groupby\n    **kwargs)\n  File "C:\\Program Files\\Anaconda2\\lib\\site-packages\\pandas\\core\\groupby.py", line 1427, in groupby\n    return klass(obj, by, **kwds)\n  File "C:\\Program Files\\Anaconda2\\lib\\site-packages\\pandas\\core\\groupby.py", line 354, in __init__\n    mutated=self.mutated)\n  File "C:\\Program Files\\Anaconda2\\lib\\site-packages\\pandas\\core\\groupby.py", line 2383, in _get_grouper\n    in_axis, name, gpr = True, gpr, obj[gpr]\n  File "C:\\Program Files\\Anaconda2\\lib\\site-packages\\pandas\\core\\frame.py", line 1997, in __getitem__\n    return self._getitem_column(key)\n  File "C:\\Program Files\\Anaconda2\\lib\\site-packages\\pandas\\core\\frame.py", line 2004, in _getitem_column\n    return self._get_item_cache(key)\n  File "C:\\Program Files\\Anaconda2\\lib\\site-packages\\pandas\\core\\generic.py", line 1350, in _get_item_cache\n    values = self._data.get(item)\n  File "C:\\Program Files\\Anaconda2\\lib\\site-packages\\pandas\\core\\internals.py", line 3290, in get\n    loc = self.items.get_loc(item)\n  File "C:\\Program Files\\Anaconda2\\lib\\site-packages\\pandas\\indexes\\base.py", line 1947, in get_loc\n    return self._engine.get_loc(self._maybe_cast_indexer(key))\n  File "pandas\\index.pyx", line 137, in pandas.index.IndexEngine.get_loc (pandas\\index.c:4154)\n  File "pandas\\index.pyx", line 161, in pandas.index.IndexEngine.get_loc (pandas\\index.c:4084)\nKeyError: \'Global_Sales\'\n'
p11
s.